	.file	"generic_dac.c"
	.text
Ltext0:
	.p2align 4
	.def	_save_widget_value;	.scl	3;	.type	32;	.endef
_save_widget_value:
LVL0:
LFB1137:
	.file 1 "plugins/generic_dac.c"
	.loc 1 55 1 view -0
	.cfi_startproc
	.loc 1 56 2 view LVU1
	.loc 1 55 1 is_stmt 0 view LVU2
	movl	8(%esp), %eax
	.loc 1 56 2 view LVU3
	movl	%eax, 4(%esp)
LVL1:
	.loc 1 56 2 view LVU4
	jmp	*32(%eax)
LVL2:
	.cfi_endproc
LFE1137:
	.p2align 4
	.def	_generic_identify;	.scl	3;	.type	32;	.endef
_generic_identify:
LVL3:
LFB1139:
	.loc 1 88 1 is_stmt 1 view -0
	.cfi_startproc
	.loc 1 89 2 view LVU6
	.loc 1 90 1 is_stmt 0 view LVU7
	movl	$1, %eax
	ret
	.cfi_endproc
LFE1139:
	.p2align 4
	.def	_context_destroy;	.scl	3;	.type	32;	.endef
_context_destroy:
LVL4:
LFB1144:
	.loc 1 205 1 is_stmt 1 view -0
	.cfi_startproc
	.loc 1 206 2 view LVU9
	.loc 1 208 2 view LVU10
	.loc 1 205 1 is_stmt 0 view LVU11
	pushl	%ebx
	.cfi_def_cfa_offset 8
	.cfi_offset 3, -8
	subl	$24, %esp
	.cfi_def_cfa_offset 32
	.loc 1 208 12 view LVU12
	movl	_dac_tx_manager_list, %ebx
LVL5:
	.loc 1 208 35 is_stmt 1 view LVU13
	.loc 1 208 2 is_stmt 0 view LVU14
	testl	%ebx, %ebx
	je	L5
	.p2align 4,,10
	.p2align 3
L6:
	.loc 1 209 3 is_stmt 1 discriminator 7 view LVU15
	.loc 1 209 24 is_stmt 0 discriminator 7 view LVU16
	movl	(%ebx), %eax
	.loc 1 210 3 discriminator 7 view LVU17
	movl	%eax, (%esp)
	.loc 1 209 18 discriminator 7 view LVU18
	movl	%eax, _dac_tx_manager
	.loc 1 210 3 is_stmt 1 discriminator 7 view LVU19
	call	_dac_data_manager_free
LVL6:
	.loc 1 211 3 discriminator 7 view LVU20
	.loc 1 208 48 is_stmt 0 discriminator 7 view LVU21
	movl	4(%ebx), %ebx
LVL7:
	.loc 1 211 18 discriminator 7 view LVU22
	movl	$0, _dac_tx_manager
	.loc 1 208 41 is_stmt 1 discriminator 7 view LVU23
LVL8:
	.loc 1 208 35 discriminator 7 view LVU24
	.loc 1 208 2 is_stmt 0 discriminator 7 view LVU25
	testl	%ebx, %ebx
	jne	L6
	.loc 1 213 2 view LVU26
	movl	_dac_tx_manager_list, %ebx
LVL9:
L5:
	.loc 1 213 2 is_stmt 1 view LVU27
	movl	%ebx, (%esp)
	call	_g_slist_free
LVL10:
	.loc 1 214 2 view LVU28
	.loc 1 216 2 is_stmt 0 view LVU29
	movl	_ctx, %eax
	.loc 1 214 22 view LVU30
	movl	$0, _dac_tx_manager_list
	.loc 1 216 2 is_stmt 1 view LVU31
	movl	%eax, 32(%esp)
LVL11:
	.loc 1 217 1 is_stmt 0 view LVU32
	addl	$24, %esp
	.cfi_def_cfa_offset 8
	popl	%ebx
	.cfi_restore 3
	.cfi_def_cfa_offset 4
	.loc 1 216 2 view LVU33
	jmp	_osc_destroy_context
LVL12:
	.cfi_endproc
LFE1144:
	.p2align 4
	.def	_compare_func;	.scl	3;	.type	32;	.endef
_compare_func:
LVL13:
LFB1141:
	.loc 1 108 1 is_stmt 1 view -0
	.cfi_startproc
	.loc 1 109 2 view LVU35
	.loc 1 111 2 view LVU36
	.loc 1 111 9 is_stmt 0 view LVU37
	jmp	_strcmp
LVL14:
	.cfi_endproc
LFE1141:
	.section .rdata,"dr"
LC0:
	.ascii "%s\0"
	.text
	.p2align 4
	.def	_sprintf.constprop.0;	.scl	3;	.type	32;	.endef
_sprintf.constprop.0:
LVL15:
LFB1146:
	.file 2 "D:/msys64/mingw32/i686-w64-mingw32/include/stdio.h"
	.loc 2 382 5 is_stmt 1 view -0
	.cfi_startproc
	.loc 2 384 3 view LVU39
	.loc 2 385 3 view LVU40
	.loc 2 385 35 view LVU41
	.loc 2 382 5 is_stmt 0 view LVU42
	subl	$28, %esp
	.cfi_def_cfa_offset 32
	.loc 2 385 35 view LVU43
	leal	40(%esp), %eax
LVL16:
	.loc 2 386 3 is_stmt 1 view LVU44
	.loc 2 386 14 is_stmt 0 view LVU45
	movl	$LC0, 4(%esp)
	movl	%eax, 8(%esp)
	movl	32(%esp), %eax
	movl	%eax, (%esp)
	call	___mingw_vsprintf
LVL17:
	.loc 2 387 3 is_stmt 1 view LVU46
	.loc 2 388 3 view LVU47
	.loc 2 389 1 is_stmt 0 view LVU48
	addl	$28, %esp
	.cfi_def_cfa_offset 4
	ret
	.cfi_endproc
LFE1146:
	.section .rdata,"dr"
	.align 4
LC1:
	.ascii "unhandled widget type, attribute: %s\12\0"
	.text
	.p2align 4
	.def	_printf.constprop.0;	.scl	3;	.type	32;	.endef
_printf.constprop.0:
LVL18:
LFB1145:
	.loc 2 354 5 is_stmt 1 view -0
	.cfi_startproc
	.loc 2 356 3 view LVU50
	.loc 2 357 3 view LVU51
	.loc 2 357 35 view LVU52
	.loc 2 354 5 is_stmt 0 view LVU53
	pushl	%ebx
	.cfi_def_cfa_offset 8
	.cfi_offset 3, -8
	subl	$24, %esp
	.cfi_def_cfa_offset 32
	.loc 2 357 35 view LVU54
	leal	36(%esp), %ebx
LVL19:
	.loc 2 358 3 is_stmt 1 view LVU55
	.loc 2 358 14 is_stmt 0 view LVU56
	movl	$1, (%esp)
	call	*__imp____acrt_iob_func
LVL20:
	movl	%ebx, 8(%esp)
	movl	$LC1, 4(%esp)
	movl	%eax, (%esp)
	call	___mingw_vfprintf
LVL21:
	.loc 2 359 3 is_stmt 1 view LVU57
	.loc 2 360 3 view LVU58
	.loc 2 361 1 is_stmt 0 view LVU59
	addl	$24, %esp
	.cfi_def_cfa_offset 8
	popl	%ebx
	.cfi_restore 3
	.cfi_def_cfa_offset 4
	ret
	.cfi_endproc
LFE1145:
	.section .rdata,"dr"
LC2:
	.ascii "generic_dac\0"
LC3:
	.ascii "generic_panel\0"
LC4:
	.ascii "dds_vbox\0"
LC5:
	.ascii "DDS\0"
	.align 4
LC7:
	.ascii "D:/msys64/usr/local/lib/osc/waveforms\0"
	.text
	.p2align 4
	.def	_generic_init;	.scl	3;	.type	32;	.endef
_generic_init:
LVL22:
LFB1143:
	.loc 1 130 1 is_stmt 1 view -0
	.cfi_startproc
	.loc 1 131 2 view LVU61
	.loc 1 132 2 view LVU62
	.loc 1 133 2 view LVU63
	.loc 1 134 2 view LVU64
	.loc 1 135 2 view LVU65
	.loc 1 136 2 view LVU66
	.loc 1 137 2 view LVU67
	.loc 1 138 2 view LVU68
	.loc 1 140 2 view LVU69
	.loc 1 130 1 is_stmt 0 view LVU70
	pushl	%ebp
	.cfi_def_cfa_offset 8
	.cfi_offset 5, -8
	pushl	%edi
	.cfi_def_cfa_offset 12
	.cfi_offset 7, -12
	pushl	%esi
	.cfi_def_cfa_offset 16
	.cfi_offset 6, -16
	pushl	%ebx
	.cfi_def_cfa_offset 20
	.cfi_offset 3, -20
	subl	$60, %esp
	.cfi_def_cfa_offset 80
	.loc 1 140 8 view LVU71
	call	_osc_create_context
LVL23:
	.loc 1 140 6 view LVU72
	movl	%eax, _ctx
	.loc 1 141 2 is_stmt 1 view LVU73
	.loc 1 141 5 is_stmt 0 view LVU74
	testl	%eax, %eax
	je	L50
	.loc 1 144 2 is_stmt 1 view LVU75
	.loc 1 144 12 is_stmt 0 view LVU76
	call	_gtk_builder_new
LVL24:
	.loc 1 145 6 view LVU77
	movl	$LC2, 4(%esp)
	movl	%eax, (%esp)
	.loc 1 144 12 view LVU78
	movl	%eax, %ebx
LVL25:
	.loc 1 145 2 is_stmt 1 view LVU79
	.loc 1 145 6 is_stmt 0 view LVU80
	call	_osc_load_glade_file
LVL26:
	.loc 1 145 5 view LVU81
	testl	%eax, %eax
	js	L50
	.loc 1 148 2 is_stmt 1 view LVU82
	.loc 1 148 18 is_stmt 0 view LVU83
	call	_gtk_widget_get_type
LVL27:
	movl	%ebx, (%esp)
	movl	$LC3, 4(%esp)
	movl	%eax, %esi
	call	_gtk_builder_get_object
LVL28:
	movl	%esi, 4(%esp)
	movl	%eax, (%esp)
	call	_g_type_check_instance_cast
LVL29:
	.loc 1 149 13 view LVU84
	movl	%ebx, (%esp)
	movl	$LC4, 4(%esp)
	.loc 1 148 18 view LVU85
	movl	%eax, 36(%esp)
LVL30:
	.loc 1 149 2 is_stmt 1 view LVU86
	.loc 1 149 13 is_stmt 0 view LVU87
	call	_gtk_builder_get_object
LVL31:
	.loc 1 149 13 view LVU88
	movl	%esi, 4(%esp)
	movl	%eax, (%esp)
	call	_g_type_check_instance_cast
LVL32:
LBB22:
LBB23:
	.loc 1 98 12 view LVU89
	movl	_plugin_list, %ebx
LVL33:
	.loc 1 98 12 view LVU90
LBE23:
LBE22:
	.loc 1 149 13 view LVU91
	movl	%eax, 44(%esp)
LVL34:
	.loc 1 150 2 is_stmt 1 view LVU92
LBB26:
LBI22:
	.loc 1 92 17 view LVU93
LBB24:
	.loc 1 94 2 view LVU94
	.loc 1 95 2 view LVU95
	.loc 1 96 2 view LVU96
	.loc 1 98 2 view LVU97
	.loc 1 98 27 view LVU98
	.loc 1 98 2 is_stmt 0 view LVU99
	testl	%ebx, %ebx
	je	L34
	.loc 1 95 10 view LVU100
	xorl	%esi, %esi
LVL35:
	.p2align 4,,10
	.p2align 3
L23:
	.loc 1 99 3 is_stmt 1 view LVU101
	.loc 1 99 10 is_stmt 0 view LVU102
	movl	(%ebx), %edx
LVL36:
	.loc 1 100 3 is_stmt 1 view LVU103
	.loc 1 100 13 is_stmt 0 view LVU104
	movl	56(%edx), %eax
	.loc 1 100 6 view LVU105
	testl	%eax, %eax
	je	L22
	.loc 1 101 4 is_stmt 1 view LVU106
	.loc 1 101 20 is_stmt 0 view LVU107
	movl	%edx, (%esp)
	call	*%eax
LVL37:
	.loc 1 101 20 view LVU108
	movl	%esi, (%esp)
	movl	%eax, 4(%esp)
	call	_g_slist_concat
LVL38:
	movl	%eax, %esi
LVL39:
L22:
	.loc 1 98 33 is_stmt 1 view LVU109
	.loc 1 98 40 is_stmt 0 view LVU110
	movl	4(%ebx), %ebx
LVL40:
	.loc 1 98 27 is_stmt 1 view LVU111
	.loc 1 98 2 is_stmt 0 view LVU112
	testl	%ebx, %ebx
	jne	L23
	.loc 1 98 2 view LVU113
	movl	%esi, 32(%esp)
LVL41:
L21:
	.loc 1 104 2 is_stmt 1 view LVU114
	.loc 1 104 2 is_stmt 0 view LVU115
LBE24:
LBE26:
	.loc 1 151 2 is_stmt 1 view LVU116
	.loc 1 151 14 is_stmt 0 view LVU117
	movl	_ctx, %ebx
	movl	%ebx, (%esp)
	call	*__imp__iio_context_get_devices_count
LVL42:
	movl	%eax, 28(%esp)
LVL43:
	.loc 1 153 2 is_stmt 1 view LVU118
	.loc 1 153 14 view LVU119
	.loc 1 153 2 is_stmt 0 view LVU120
	testl	%eax, %eax
	jle	L24
	.loc 1 153 9 view LVU121
	movl	$0, 24(%esp)
LBB27:
LBB28:
	.loc 1 120 8 view LVU122
	movl	__imp__iio_device_get_channel, %ebp
LBE28:
LBE27:
	.loc 1 135 7 view LVU123
	movb	$0, 43(%esp)
LVL44:
	.p2align 4,,10
	.p2align 3
L31:
	.loc 1 154 3 is_stmt 1 view LVU124
	.loc 1 154 9 is_stmt 0 view LVU125
	movl	24(%esp), %eax
	movl	%ebx, (%esp)
LBB32:
LBB29:
	.loc 1 119 9 view LVU126
	xorl	%edi, %edi
LBE29:
LBE32:
	.loc 1 154 9 view LVU127
	movl	%eax, 4(%esp)
	call	*__imp__iio_context_get_device
LVL45:
	.loc 1 154 7 view LVU128
	movl	%eax, _dac
	.loc 1 155 3 is_stmt 1 view LVU129
LVL46:
LBB33:
LBI27:
	.loc 1 114 13 view LVU130
LBB30:
	.loc 1 116 2 view LVU131
	.loc 1 117 2 view LVU132
	.loc 1 119 2 view LVU133
	.loc 1 119 2 is_stmt 0 view LVU134
LBE30:
LBE33:
	.loc 1 154 9 view LVU135
	movl	%eax, %ebx
LBB34:
LBB31:
	.loc 1 119 18 view LVU136
	movl	%eax, (%esp)
	call	*__imp__iio_device_get_channels_count
LVL47:
	.loc 1 119 18 view LVU137
	movl	%eax, 20(%esp)
	.loc 1 119 2 view LVU138
	jmp	L25
LVL48:
	.p2align 4,,10
	.p2align 3
L28:
	.loc 1 120 3 is_stmt 1 view LVU139
	.loc 1 120 8 is_stmt 0 view LVU140
	movl	%edi, 4(%esp)
	movl	%ebx, (%esp)
	call	*%ebp
LVL49:
	.loc 1 121 7 view LVU141
	movl	%eax, (%esp)
	.loc 1 120 8 view LVU142
	movl	%eax, %esi
LVL50:
	.loc 1 121 3 is_stmt 1 view LVU143
	.loc 1 121 7 is_stmt 0 view LVU144
	call	*__imp__iio_channel_is_scan_element
LVL51:
	.loc 1 121 6 view LVU145
	testb	%al, %al
	je	L26
	.loc 1 121 42 view LVU146
	movl	%esi, (%esp)
	call	*__imp__iio_channel_is_output
LVL52:
	.loc 1 121 39 view LVU147
	testb	%al, %al
	jne	L27
L26:
	.loc 1 119 54 is_stmt 1 view LVU148
	.loc 1 119 55 is_stmt 0 view LVU149
	addl	$1, %edi
LVL53:
L25:
	.loc 1 119 14 is_stmt 1 view LVU150
	.loc 1 119 2 is_stmt 0 view LVU151
	cmpl	20(%esp), %edi
	jne	L28
LVL54:
L29:
	.loc 1 119 2 view LVU152
LBE31:
LBE34:
	.loc 1 153 29 is_stmt 1 discriminator 2 view LVU153
	.loc 1 153 30 is_stmt 0 discriminator 2 view LVU154
	addl	$1, 24(%esp)
LVL55:
	.loc 1 153 30 discriminator 2 view LVU155
	movl	24(%esp), %eax
LVL56:
	.loc 1 153 14 is_stmt 1 discriminator 2 view LVU156
	.loc 1 153 2 is_stmt 0 discriminator 2 view LVU157
	cmpl	%eax, 28(%esp)
	je	L30
L51:
	.loc 1 154 9 view LVU158
	movl	_ctx, %ebx
	jmp	L31
LVL57:
	.p2align 4,,10
	.p2align 3
L27:
	.loc 1 158 18 view LVU159
	movb	%al, 20(%esp)
LVL58:
	.loc 1 158 3 is_stmt 1 view LVU160
	.loc 1 158 18 is_stmt 0 view LVU161
	movl	%ebx, (%esp)
	call	*__imp__iio_device_get_name
LVL59:
	.loc 1 159 3 is_stmt 1 view LVU162
	.loc 1 159 6 is_stmt 0 view LVU163
	movzbl	20(%esp), %edx
	testl	%eax, %eax
	je	L29
	.loc 1 162 7 view LVU164
	movl	%eax, 4(%esp)
	movl	32(%esp), %eax
LVL60:
	.loc 1 162 7 view LVU165
	movl	$_compare_func, 8(%esp)
	movl	%eax, (%esp)
	movb	%dl, 20(%esp)
	.loc 1 162 3 is_stmt 1 view LVU166
	.loc 1 162 7 is_stmt 0 view LVU167
	call	_g_slist_find_custom
LVL61:
	.loc 1 162 6 view LVU168
	testl	%eax, %eax
	jne	L29
	.loc 1 165 3 is_stmt 1 view LVU169
	.loc 1 165 20 is_stmt 0 view LVU170
	movl	_ctx, %eax
	movl	$0, 4(%esp)
	movl	%eax, 8(%esp)
	movl	_dac, %eax
	movl	%eax, (%esp)
	call	_dac_data_manager_new
LVL62:
	.loc 1 165 18 view LVU171
	movl	%eax, _dac_tx_manager
	.loc 1 166 3 is_stmt 1 view LVU172
	.loc 1 166 6 is_stmt 0 view LVU173
	testl	%eax, %eax
	je	L29
	.loc 1 169 3 is_stmt 1 view LVU174
LVL63:
	.loc 1 171 3 view LVU175
	.loc 1 171 19 is_stmt 0 view LVU176
	movl	$LC5, (%esp)
	call	_gtk_frame_new
LVL64:
	movl	%eax, %ebx
LVL65:
	.loc 1 172 3 is_stmt 1 view LVU177
	.loc 1 172 21 is_stmt 0 view LVU178
	call	_gtk_container_get_type
LVL66:
	.loc 1 172 21 view LVU179
	movl	%eax, 4(%esp)
	movl	%eax, %esi
	movl	44(%esp), %eax
	movl	%eax, (%esp)
	call	_g_type_check_instance_cast
LVL67:
	.loc 1 172 3 view LVU180
	movl	%ebx, 4(%esp)
	movl	%eax, (%esp)
	call	_gtk_container_add
LVL68:
	.loc 1 173 3 is_stmt 1 view LVU181
	movl	_dac_tx_manager, %eax
	movl	%eax, (%esp)
	call	_dac_data_manager_get_gui_container
LVL69:
	.loc 1 173 21 is_stmt 0 view LVU182
	movl	%esi, 4(%esp)
	movl	%ebx, (%esp)
	.loc 1 173 3 view LVU183
	movl	%eax, %edi
	.loc 1 173 21 view LVU184
	call	_g_type_check_instance_cast
LVL70:
	.loc 1 173 3 view LVU185
	movl	%edi, 4(%esp)
	movl	%eax, (%esp)
	call	_gtk_container_add
LVL71:
	.loc 1 175 3 is_stmt 1 view LVU186
	movl	%ebx, (%esp)
	call	_gtk_widget_show_all
LVL72:
	.loc 1 177 3 view LVU187
	movl	_dac_tx_manager, %eax
	movl	$-4194304, 4(%esp)
	movl	$1104150527, 8(%esp)
	movl	%eax, (%esp)
	call	_dac_data_manager_freq_widgets_range_update
LVL73:
	.loc 1 178 3 view LVU188
	movl	_dac_tx_manager, %eax
	movl	%eax, (%esp)
	call	_dac_data_manager_update_iio_widgets
LVL74:
	.loc 1 180 3 view LVU189
	.loc 1 65 14 view LVU190
	.loc 1 182 3 view LVU191
LBB35:
LBI35:
	.loc 1 49 13 view LVU192
LBB36:
	.loc 1 51 2 view LVU193
	movl	$0, 4(%esp)
	movl	$_tx_widgets, (%esp)
	call	_iio_update_widgets
LVL75:
LBE36:
LBE35:
	.loc 1 183 3 view LVU194
	movl	_dac_tx_manager, %eax
	movl	%eax, (%esp)
	call	_dac_data_manager_update_iio_widgets
LVL76:
	.loc 1 185 3 view LVU195
	movl	_dac_tx_manager, %eax
	movl	$16, 4(%esp)
	movl	%eax, (%esp)
	call	_dac_data_manager_set_buffer_size_alignment
LVL77:
	.loc 1 186 3 view LVU196
	movl	_dac_tx_manager, %eax
	movl	$LC7, 4(%esp)
	movl	%eax, (%esp)
	call	_dac_data_manager_set_buffer_chooser_current_folder
LVL78:
	.loc 1 189 3 view LVU197
	.loc 1 189 25 is_stmt 0 view LVU198
	movl	_dac_tx_manager, %eax
	movl	%eax, 4(%esp)
	movl	_dac_tx_manager_list, %eax
	movl	%eax, (%esp)
	call	_g_slist_append
LVL79:
	.loc 1 169 14 view LVU199
	movzbl	20(%esp), %edx
	.loc 1 153 30 view LVU200
	addl	$1, 24(%esp)
LVL80:
	.loc 1 189 23 view LVU201
	movl	%eax, _dac_tx_manager_list
	.loc 1 191 3 is_stmt 1 view LVU202
	.loc 1 153 30 is_stmt 0 view LVU203
	movl	24(%esp), %eax
	.loc 1 169 14 view LVU204
	movb	%dl, 43(%esp)
LVL81:
	.loc 1 153 29 is_stmt 1 view LVU205
	.loc 1 153 14 view LVU206
	.loc 1 153 2 is_stmt 0 view LVU207
	cmpl	%eax, 28(%esp)
	jne	L51
LVL82:
L30:
	.loc 1 194 2 is_stmt 1 view LVU208
	movl	32(%esp), %eax
LVL83:
	.loc 1 194 2 is_stmt 0 view LVU209
	movl	%eax, (%esp)
	call	_g_slist_free
LVL84:
	.loc 1 196 2 is_stmt 1 view LVU210
	.loc 1 196 5 is_stmt 0 view LVU211
	cmpb	$0, 43(%esp)
	je	L32
	.loc 1 202 1 view LVU212
	movl	36(%esp), %eax
	addl	$60, %esp
	.cfi_remember_state
	.cfi_def_cfa_offset 20
	popl	%ebx
	.cfi_restore 3
	.cfi_def_cfa_offset 16
	popl	%esi
	.cfi_restore 6
	.cfi_def_cfa_offset 12
	popl	%edi
	.cfi_restore 7
	.cfi_def_cfa_offset 8
	popl	%ebp
	.cfi_restore 5
	.cfi_def_cfa_offset 4
	ret
LVL85:
L24:
	.cfi_restore_state
	.loc 1 194 2 is_stmt 1 view LVU213
	movl	32(%esp), %eax
LVL86:
	.loc 1 194 2 is_stmt 0 view LVU214
	movl	%eax, (%esp)
	call	_g_slist_free
LVL87:
	.loc 1 196 2 is_stmt 1 view LVU215
L32:
	.loc 1 197 3 view LVU216
	movl	_ctx, %eax
	movl	%eax, (%esp)
	call	_osc_destroy_context
LVL88:
L50:
	.loc 1 198 3 view LVU217
	.loc 1 198 10 is_stmt 0 view LVU218
	movl	$0, 36(%esp)
	.loc 1 202 1 view LVU219
	movl	36(%esp), %eax
	addl	$60, %esp
	.cfi_remember_state
	.cfi_def_cfa_offset 20
	popl	%ebx
	.cfi_restore 3
	.cfi_def_cfa_offset 16
	popl	%esi
	.cfi_restore 6
	.cfi_def_cfa_offset 12
	popl	%edi
	.cfi_restore 7
	.cfi_def_cfa_offset 8
	popl	%ebp
	.cfi_restore 5
	.cfi_def_cfa_offset 4
	ret
LVL89:
L34:
	.cfi_restore_state
LBB37:
LBB25:
	.loc 1 95 10 view LVU220
	movl	$0, 32(%esp)
	jmp	L21
LBE25:
LBE37:
	.cfi_endproc
LFE1143:
	.globl	_plugin
	.section .rdata,"dr"
LC8:
	.ascii "DAC Data Manager\0"
	.data
	.align 32
_plugin:
	.space 4
	.long	LC8
	.space 8
	.long	_generic_identify
	.long	_generic_init
	.space 20
	.long	_context_destroy
	.space 16
.lcomm _tx_widgets,4400,32
.lcomm _dac,4,4
.lcomm _ctx,4,4
.lcomm _dac_tx_manager_list,4,4
.lcomm _dac_tx_manager,4,4
	.text
Letext0:
	.file 3 "D:/msys64/mingw32/i686-w64-mingw32/include/corecrt.h"
	.file 4 "D:/msys64/mingw32/lib/glib-2.0/include/glibconfig.h"
	.file 5 "D:/msys64/mingw32/include/glib-2.0/glib/gtypes.h"
	.file 6 "D:/msys64/mingw32/include/glib-2.0/glib/garray.h"
	.file 7 "D:/msys64/mingw32/include/glib-2.0/glib/gthread.h"
	.file 8 "D:/msys64/mingw32/include/glib-2.0/glib/deprecated/gthread.h"
	.file 9 "D:/msys64/mingw32/include/glib-2.0/glib/gdataset.h"
	.file 10 "D:/msys64/mingw32/include/glib-2.0/glib/glist.h"
	.file 11 "D:/msys64/mingw32/include/glib-2.0/glib/gslist.h"
	.file 12 "D:/msys64/mingw32/include/glib-2.0/glib/gscanner.h"
	.file 13 "D:/msys64/mingw32/include/glib-2.0/gobject/gtype.h"
	.file 14 "D:/msys64/mingw32/include/glib-2.0/gobject/gclosure.h"
	.file 15 "D:/msys64/mingw32/include/glib-2.0/gobject/gsignal.h"
	.file 16 "D:/msys64/mingw32/include/glib-2.0/gobject/gobject.h"
	.file 17 "D:/msys64/mingw32/include/glib-2.0/gio/gioenums.h"
	.file 18 "D:/msys64/mingw32/i686-w64-mingw32/include/stdint.h"
	.file 19 "D:/msys64/mingw32/include/harfbuzz/hb-common.h"
	.file 20 "D:/msys64/mingw32/include/pango-1.0/pango/pango-font.h"
	.file 21 "D:/msys64/mingw32/include/gtk-2.0/gdk/gdktypes.h"
	.file 22 "D:/msys64/mingw32/include/gtk-2.0/gdk/gdkcolor.h"
	.file 23 "D:/msys64/mingw32/include/gtk-2.0/gdk/gdkfont.h"
	.file 24 "D:/msys64/mingw32/include/gtk-2.0/gdk/gdkgc.h"
	.file 25 "D:/msys64/mingw32/include/gtk-2.0/gdk/gdkvisual.h"
	.file 26 "D:/msys64/mingw32/include/gtk-2.0/gdk/gdkdrawable.h"
	.file 27 "D:/msys64/mingw32/include/gtk-2.0/gtk/gtktypeutils.h"
	.file 28 "D:/msys64/mingw32/include/gtk-2.0/gtk/gtkobject.h"
	.file 29 "D:/msys64/mingw32/include/gtk-2.0/gtk/gtkstyle.h"
	.file 30 "D:/msys64/mingw32/include/gtk-2.0/gtk/gtkrc.h"
	.file 31 "D:/msys64/mingw32/include/gtk-2.0/gtk/gtkwidget.h"
	.file 32 "D:/msys64/mingw32/include/gtk-2.0/gtk/gtkcontainer.h"
	.file 33 "D:/msys64/mingw32/include/gtk-2.0/gtk/gtkbuilder.h"
	.file 34 "plugins/../osc_preferences.h"
	.file 35 "plugins/../iio_widget.h"
	.file 36 "plugins/../osc_plugin.h"
	.file 37 "plugins/dac_data_manager.h"
	.file 38 "plugins/../osc.h"
	.file 39 "D:/msys64/usr/include/iio.h"
	.file 40 "D:/msys64/mingw32/include/gtk-2.0/gtk/gtkframe.h"
	.file 41 "D:/msys64/mingw32/i686-w64-mingw32/include/string.h"